target datalayout = "e-m:e-p270:32:32-p271:32:32-p272:64:64-i64:64-i128:128-f80:128-n8:16:32:64-S128"
target triple = "x86_64-pc-linux-gnu"

%struct.ieee802154_key_t = type { ptr, i32, i32, [16 x i8], [16 x i8] }
%struct._GByteArray = type { ptr, i32 }

@num_ieee802154_keys = internal global i32 0, align 4
@ieee802154_keys = internal global ptr null, align 8
@.str.1151 = private unnamed_addr constant [9 x i8] c"ZigBeeIP\00", align 1

; Function Attrs: alwaysinline nounwind
define internal ptr @memcpy.inline(ptr noalias %0, ptr noalias %1, i64 %2) #9 {
  %4 = alloca ptr, align 8
  %5 = alloca ptr, align 8
  %6 = alloca i64, align 8
  store ptr %0, ptr %4, align 8
  store ptr %1, ptr %5, align 8
  store i64 %2, ptr %6, align 8
  %7 = load ptr, ptr %4, align 8
  %8 = load ptr, ptr %5, align 8
  %9 = load i64, ptr %6, align 8
  %10 = load ptr, ptr %4, align 8
  %11 = call i64 @llvm.objectsize.i64.p0(ptr %10, i1 false, i1 true, i1 true)
  %12 = call ptr @__memcpy_chk(ptr noundef %7, ptr noundef %8, i64 noundef %9, i64 noundef %11) #17
  ret ptr %12
}

; Function Attrs: null_pointer_is_valid sspstrong uwtable
define internal void @ieee802154_key_post_update_cb() #0 {
  %1 = alloca i32, align 4
  %2 = alloca ptr, align 8
  %3 = alloca [32 x i8], align 16
  call void @llvm.lifetime.start.p0(i64 4, ptr %1) #17
  call void @llvm.lifetime.start.p0(i64 8, ptr %2) #17
  store i32 0, ptr %1, align 4
  br label %4

4:                                                ; preds = %105, %0
  %5 = load i32, ptr %1, align 4
  %6 = load i32, ptr @num_ieee802154_keys, align 4
  %7 = icmp ult i32 %5, %6
  br i1 %7, label %8, label %108

8:                                                ; preds = %4
  %9 = load ptr, ptr @ieee802154_keys, align 8
  %10 = load i32, ptr %1, align 4
  %11 = zext i32 %10 to i64
  %12 = getelementptr %struct.ieee802154_key_t, ptr %9, i64 %11
  %13 = getelementptr inbounds nuw %struct.ieee802154_key_t, ptr %12, i32 0, i32 2
  %14 = load i32, ptr %13, align 4
  switch i32 %14, label %104 [
    i32 0, label %15
    i32 1, label %15
    i32 2, label %104
  ]

15:                                               ; preds = %8, %8
  %16 = call ptr @g_byte_array_new()
  store ptr %16, ptr %2, align 8
  %17 = load ptr, ptr @ieee802154_keys, align 8
  %18 = load i32, ptr %1, align 4
  %19 = zext i32 %18 to i64
  %20 = getelementptr %struct.ieee802154_key_t, ptr %17, i64 %19
  %21 = getelementptr inbounds nuw %struct.ieee802154_key_t, ptr %20, i32 0, i32 0
  %22 = load ptr, ptr %21, align 8
  %23 = load ptr, ptr %2, align 8
  %24 = call zeroext i1 @hex_str_to_bytes(ptr noundef %22, ptr noundef %23, i1 noundef zeroext false)
  br i1 %24, label %25, label %101

25:                                               ; preds = %15
  %26 = load ptr, ptr @ieee802154_keys, align 8
  %27 = load i32, ptr %1, align 4
  %28 = zext i32 %27 to i64
  %29 = getelementptr %struct.ieee802154_key_t, ptr %26, i64 %28
  %30 = getelementptr inbounds nuw %struct.ieee802154_key_t, ptr %29, i32 0, i32 2
  %31 = load i32, ptr %30, align 4
  %32 = icmp eq i32 %31, 1
  br i1 %32, label %33, label %79

33:                                               ; preds = %25
  call void @llvm.lifetime.start.p0(i64 32, ptr %3) #17
  %34 = getelementptr inbounds [32 x i8], ptr %3, i64 0, i64 0
  %35 = load ptr, ptr %2, align 8
  %36 = getelementptr inbounds nuw %struct._GByteArray, ptr %35, i32 0, i32 0
  %37 = load ptr, ptr %36, align 8
  %38 = call i32 @ws_hmac_buffer(i32 noundef 8, ptr noundef %34, ptr noundef @.str.1151, i64 noundef 8, ptr noundef %37, i64 noundef 16)
  %39 = icmp ne i32 %38, 0
  br i1 %39, label %57, label %40

40:                                               ; preds = %33
  %41 = load ptr, ptr @ieee802154_keys, align 8
  %42 = load i32, ptr %1, align 4
  %43 = zext i32 %42 to i64
  %44 = getelementptr %struct.ieee802154_key_t, ptr %41, i64 %43
  %45 = getelementptr inbounds nuw %struct.ieee802154_key_t, ptr %44, i32 0, i32 3
  %46 = getelementptr inbounds [16 x i8], ptr %45, i64 0, i64 0
  %47 = getelementptr [32 x i8], ptr %3, i64 0, i64 16
  %48 = call ptr @memcpy.inline(ptr noundef %46, ptr noundef %47, i64 noundef 16) #17
  %49 = load ptr, ptr @ieee802154_keys, align 8
  %50 = load i32, ptr %1, align 4
  %51 = zext i32 %50 to i64
  %52 = getelementptr %struct.ieee802154_key_t, ptr %49, i64 %51
  %53 = getelementptr inbounds nuw %struct.ieee802154_key_t, ptr %52, i32 0, i32 4
  %54 = getelementptr inbounds [16 x i8], ptr %53, i64 0, i64 0
  %55 = getelementptr inbounds [32 x i8], ptr %3, i64 0, i64 0
  %56 = call ptr @memcpy.inline(ptr noundef %54, ptr noundef %55, i64 noundef 16) #17
  br label %78

57:                                               ; preds = %33
  %58 = load ptr, ptr @ieee802154_keys, align 8
  %59 = load i32, ptr %1, align 4
  %60 = zext i32 %59 to i64
  %61 = getelementptr %struct.ieee802154_key_t, ptr %58, i64 %60
  %62 = getelementptr inbounds nuw %struct.ieee802154_key_t, ptr %61, i32 0, i32 3
  %63 = getelementptr inbounds [16 x i8], ptr %62, i64 0, i64 0
  %64 = load ptr, ptr %2, align 8
  %65 = getelementptr inbounds nuw %struct._GByteArray, ptr %64, i32 0, i32 0
  %66 = load ptr, ptr %65, align 8
  %67 = call ptr @memcpy.inline(ptr noundef %63, ptr noundef %66, i64 noundef 16) #17
  %68 = load ptr, ptr @ieee802154_keys, align 8
  %69 = load i32, ptr %1, align 4
  %70 = zext i32 %69 to i64
  %71 = getelementptr %struct.ieee802154_key_t, ptr %68, i64 %70
  %72 = getelementptr inbounds nuw %struct.ieee802154_key_t, ptr %71, i32 0, i32 4
  %73 = getelementptr inbounds [16 x i8], ptr %72, i64 0, i64 0
  %74 = load ptr, ptr %2, align 8
  %75 = getelementptr inbounds nuw %struct._GByteArray, ptr %74, i32 0, i32 0
  %76 = load ptr, ptr %75, align 8
  %77 = call ptr @memcpy.inline(ptr noundef %73, ptr noundef %76, i64 noundef 16) #17
  br label %78

78:                                               ; preds = %57, %40
  call void @llvm.lifetime.end.p0(i64 32, ptr %3) #17
  br label %100

79:                                               ; preds = %25
  %80 = load ptr, ptr @ieee802154_keys, align 8
  %81 = load i32, ptr %1, align 4
  %82 = zext i32 %81 to i64
  %83 = getelementptr %struct.ieee802154_key_t, ptr %80, i64 %82
  %84 = getelementptr inbounds nuw %struct.ieee802154_key_t, ptr %83, i32 0, i32 3
  %85 = getelementptr inbounds [16 x i8], ptr %84, i64 0, i64 0
  %86 = load ptr, ptr %2, align 8
  %87 = getelementptr inbounds nuw %struct._GByteArray, ptr %86, i32 0, i32 0
  %88 = load ptr, ptr %87, align 8
  %89 = call ptr @memcpy.inline(ptr noundef %85, ptr noundef %88, i64 noundef 16) #17
  %90 = load ptr, ptr @ieee802154_keys, align 8
  %91 = load i32, ptr %1, align 4
  %92 = zext i32 %91 to i64
  %93 = getelementptr %struct.ieee802154_key_t, ptr %90, i64 %92
  %94 = getelementptr inbounds nuw %struct.ieee802154_key_t, ptr %93, i32 0, i32 4
  %95 = getelementptr inbounds [16 x i8], ptr %94, i64 0, i64 0
  %96 = load ptr, ptr %2, align 8
  %97 = getelementptr inbounds nuw %struct._GByteArray, ptr %96, i32 0, i32 0
  %98 = load ptr, ptr %97, align 8
  %99 = call ptr @memcpy.inline(ptr noundef %95, ptr noundef %98, i64 noundef 16) #17
  br label %100

100:                                              ; preds = %79, %78
  br label %101

101:                                              ; preds = %100, %15
  %102 = load ptr, ptr %2, align 8
  %103 = call ptr @g_byte_array_free(ptr noundef %102, i32 noundef 1)
  br label %104

104:                                              ; preds = %8, %8, %101
  br label %105

105:                                              ; preds = %104
  %106 = load i32, ptr %1, align 4
  %107 = add i32 %106, 1
  store i32 %107, ptr %1, align 4
  br label %4, !llvm.loop !23

108:                                              ; preds = %4
  call void @llvm.lifetime.end.p0(i64 8, ptr %2) #17
  call void @llvm.lifetime.end.p0(i64 4, ptr %1) #17
  ret void
}